target datalayout = "e-m:e-p270:32:32-p271:32:32-p272:64:64-i64:64-i128:128-f80:128-n8:16:32:64-S128"
target triple = "x86_64-pc-linux-gnu"

%"struct.icu_77::FormattedStringBuilder::Field" = type { i8 }
%"struct.icu_77::number::impl::Modifier::Parameters" = type { ptr, i32, i32 }
%"class.icu_77::number::impl::Modifier" = type { ptr }
%"class.icu_77::UObject" = type { ptr }
%"class.icu_77::UnicodeString" = type { %"class.icu_77::Replaceable", %"union.icu_77::UnicodeString::StackBufferOrFields" }
%"class.icu_77::Replaceable" = type { %"class.icu_77::UObject" }
%"union.icu_77::UnicodeString::StackBufferOrFields" = type { %struct.anon.3, [32 x i8] }
%struct.anon.3 = type { i16, i32, i32, ptr }
%struct.anon.2 = type { i16, [27 x i16] }
%"class.icu_77::number::impl::ConstantMultiFieldModifier" = type { %"class.icu_77::number::impl::Modifier", %"class.icu_77::FormattedStringBuilder", %"class.icu_77::FormattedStringBuilder", i8, i8, %"struct.icu_77::number::impl::Modifier::Parameters" }
%"class.icu_77::FormattedStringBuilder" = type { i8, %"union.icu_77::FormattedStringBuilder::ValueOrHeapArray", %"union.icu_77::FormattedStringBuilder::ValueOrHeapArray.0", i32, i32 }
%"union.icu_77::FormattedStringBuilder::ValueOrHeapArray" = type { %struct.anon, [64 x i8] }
%struct.anon = type { ptr, i32 }
%"union.icu_77::FormattedStringBuilder::ValueOrHeapArray.0" = type { %struct.anon.1, [24 x i8] }
%struct.anon.1 = type { ptr, i32 }

@_ZN6icu_77L15kUndefinedFieldE = internal constant %"struct.icu_77::FormattedStringBuilder::Field" zeroinitializer, align 1
@_ZTVN6icu_777UObjectE = available_externally unnamed_addr constant { [5 x ptr] } { [5 x ptr] [ptr null, ptr @_ZTIN6icu_777UObjectE, ptr @_ZN6icu_777UObjectD1Ev, ptr @_ZN6icu_777UObjectD0Ev, ptr @_ZNK6icu_777UObject17getDynamicClassIDEv] }, align 8

; Function Attrs: inlinehint mustprogress nounwind uwtable
define linkonce_odr void @_ZN6icu_777UObjectC2Ev(ptr noundef nonnull align 8 dereferenceable(8) %0) unnamed_addr #10 comdat align 2 {
  %2 = alloca ptr, align 8
  store ptr %0, ptr %2, align 8, !tbaa !114
  %3 = load ptr, ptr %2, align 8
  store ptr getelementptr inbounds inrange(-16, 24) ({ [5 x ptr] }, ptr @_ZTVN6icu_777UObjectE, i32 0, i32 0, i32 2), ptr %3, align 8, !tbaa !20
  ret void
}

; Function Attrs: inlinehint mustprogress nounwind uwtable
define linkonce_odr void @_ZN6icu_7711ReplaceableC2Ev(ptr noundef nonnull align 8 dereferenceable(8) %0) unnamed_addr #10 comdat align 2 {
  %2 = alloca ptr, align 8
  store ptr %0, ptr %2, align 8, !tbaa !112
  %3 = load ptr, ptr %2, align 8
  call void @_ZN6icu_777UObjectC2Ev(ptr noundef nonnull align 8 dereferenceable(8) %3) #15
  store ptr getelementptr inbounds inrange(-16, 88) ({ [13 x ptr] }, ptr @_ZTVN6icu_7711ReplaceableE, i32 0, i32 0, i32 2), ptr %3, align 8, !tbaa !20
  ret void
}

; Function Attrs: inlinehint mustprogress uwtable
define linkonce_odr void @_ZN6icu_7713UnicodeStringC2Ev(ptr noundef nonnull align 8 dereferenceable(64) %0) unnamed_addr #7 comdat align 2 {
  %2 = alloca ptr, align 8
  store ptr %0, ptr %2, align 8, !tbaa !42
  %3 = load ptr, ptr %2, align 8
  call void @_ZN6icu_7711ReplaceableC2Ev(ptr noundef nonnull align 8 dereferenceable(8) %3)
  store ptr getelementptr inbounds inrange(-16, 88) ({ [13 x ptr] }, ptr @_ZTVN6icu_7713UnicodeStringE, i32 0, i32 0, i32 2), ptr %3, align 8, !tbaa !20
  %4 = getelementptr inbounds nuw %"class.icu_77::UnicodeString", ptr %3, i32 0, i32 1
  %5 = getelementptr inbounds nuw %struct.anon.2, ptr %4, i32 0, i32 0
  store i16 2, ptr %5, align 8, !tbaa !41
  ret void
}

; Function Attrs: mustprogress uwtable
define noundef i32 @_ZNK6icu_776number4impl26ConstantMultiFieldModifier5applyERNS_22FormattedStringBuilderEiiR10UErrorCode(ptr noundef nonnull align 8 dereferenceable(304) %0, ptr noundef nonnull align 8 dereferenceable(136) %1, i32 noundef %2, i32 noundef %3, ptr noundef nonnull align 4 dereferenceable(4) %4) unnamed_addr #2 align 2 personality ptr @__gxx_personality_v0 {
  %6 = alloca ptr, align 8
  %7 = alloca ptr, align 8
  %8 = alloca i32, align 4
  %9 = alloca i32, align 4
  %10 = alloca ptr, align 8
  %11 = alloca i32, align 4
  %12 = alloca %"class.icu_77::UnicodeString", align 8
  %13 = alloca %"struct.icu_77::FormattedStringBuilder::Field", align 1
  %14 = alloca ptr, align 8
  %15 = alloca i32, align 4
  store ptr %0, ptr %6, align 8, !tbaa !76
  store ptr %1, ptr %7, align 8, !tbaa !35
  store i32 %2, ptr %8, align 4, !tbaa !37
  store i32 %3, ptr %9, align 4, !tbaa !37
  store ptr %4, ptr %10, align 8, !tbaa !39
  %16 = load ptr, ptr %6, align 8
  call void @llvm.lifetime.start.p0(i64 4, ptr %11) #15
  %17 = load ptr, ptr %7, align 8, !tbaa !35
  %18 = load i32, ptr %8, align 4, !tbaa !37
  %19 = getelementptr inbounds nuw %"class.icu_77::number::impl::ConstantMultiFieldModifier", ptr %16, i32 0, i32 1
  %20 = load ptr, ptr %10, align 8, !tbaa !39
  %21 = call noundef i32 @_ZN6icu_7722FormattedStringBuilder6insertEiRKS0_R10UErrorCode(ptr noundef nonnull align 8 dereferenceable(136) %17, i32 noundef %18, ptr noundef nonnull align 8 dereferenceable(136) %19, ptr noundef nonnull align 4 dereferenceable(4) %20)
  store i32 %21, ptr %11, align 4, !tbaa !37
  %22 = getelementptr inbounds nuw %"class.icu_77::number::impl::ConstantMultiFieldModifier", ptr %16, i32 0, i32 3
  %23 = load i8, ptr %22, align 8, !tbaa !78, !range !52, !noundef !53
  %24 = trunc i8 %23 to i1
  br i1 %24, label %25, label %44

25:                                               ; preds = %5
  %26 = load ptr, ptr %7, align 8, !tbaa !35
  %27 = load i32, ptr %8, align 4, !tbaa !37
  %28 = load i32, ptr %11, align 4, !tbaa !37
  %29 = add nsw i32 %27, %28
  %30 = load i32, ptr %9, align 4, !tbaa !37
  %31 = load i32, ptr %11, align 4, !tbaa !37
  %32 = add nsw i32 %30, %31
  call void @llvm.lifetime.start.p0(i64 64, ptr %12) #15
  call void @_ZN6icu_7713UnicodeStringC2Ev(ptr noundef nonnull align 8 dereferenceable(64) %12)
  call void @llvm.memcpy.p0.p0.i64(ptr align 1 %13, ptr align 1 @_ZN6icu_77L15kUndefinedFieldE, i64 1, i1 false), !tbaa.struct !40
  %33 = load ptr, ptr %10, align 8, !tbaa !39
  %34 = getelementptr inbounds nuw %"struct.icu_77::FormattedStringBuilder::Field", ptr %13, i32 0, i32 0
  %35 = load i8, ptr %34, align 1
  %36 = invoke noundef i32 @_ZN6icu_7722FormattedStringBuilder6spliceEiiRKNS_13UnicodeStringEiiNS0_5FieldER10UErrorCode(ptr noundef nonnull align 8 dereferenceable(136) %26, i32 noundef %29, i32 noundef %32, ptr noundef nonnull align 8 dereferenceable(64) %12, i32 noundef 0, i32 noundef 0, i8 %35, ptr noundef nonnull align 4 dereferenceable(4) %33)
          to label %37 unwind label %40

37:                                               ; preds = %25
  %38 = load i32, ptr %11, align 4, !tbaa !37
  %39 = add nsw i32 %38, %36
  store i32 %39, ptr %11, align 4, !tbaa !37
  call void @_ZN6icu_7713UnicodeStringD1Ev(ptr noundef nonnull align 8 dereferenceable(64) %12) #15
  call void @llvm.lifetime.end.p0(i64 64, ptr %12) #15
  br label %44

40:                                               ; preds = %25
  %41 = landingpad { ptr, i32 }
          cleanup
  %42 = extractvalue { ptr, i32 } %41, 0
  store ptr %42, ptr %14, align 8
  %43 = extractvalue { ptr, i32 } %41, 1
  store i32 %43, ptr %15, align 4
  call void @_ZN6icu_7713UnicodeStringD1Ev(ptr noundef nonnull align 8 dereferenceable(64) %12) #15
  call void @llvm.lifetime.end.p0(i64 64, ptr %12) #15
  call void @llvm.lifetime.end.p0(i64 4, ptr %11) #15
  br label %55

44:                                               ; preds = %37, %5
  %45 = load ptr, ptr %7, align 8, !tbaa !35
  %46 = load i32, ptr %9, align 4, !tbaa !37
  %47 = load i32, ptr %11, align 4, !tbaa !37
  %48 = add nsw i32 %46, %47
  %49 = getelementptr inbounds nuw %"class.icu_77::number::impl::ConstantMultiFieldModifier", ptr %16, i32 0, i32 2
  %50 = load ptr, ptr %10, align 8, !tbaa !39
  %51 = call noundef i32 @_ZN6icu_7722FormattedStringBuilder6insertEiRKS0_R10UErrorCode(ptr noundef nonnull align 8 dereferenceable(136) %45, i32 noundef %48, ptr noundef nonnull align 8 dereferenceable(136) %49, ptr noundef nonnull align 4 dereferenceable(4) %50)
  %52 = load i32, ptr %11, align 4, !tbaa !37
  %53 = add nsw i32 %52, %51
  store i32 %53, ptr %11, align 4, !tbaa !37
  %54 = load i32, ptr %11, align 4, !tbaa !37
  call void @llvm.lifetime.end.p0(i64 4, ptr %11) #15
  ret i32 %54

55:                                               ; preds = %40
  %56 = load ptr, ptr %14, align 8
  %57 = load i32, ptr %15, align 4
  %58 = insertvalue { ptr, i32 } poison, ptr %56, 0
  %59 = insertvalue { ptr, i32 } %58, i32 %57, 1
  resume { ptr, i32 } %59
}