; Function Attrs: mustprogress uwtable
define noundef i32 @_ZNK6icu_776number4impl26ConstantMultiFieldModifier5applyERNS_22FormattedStringBuilderEiiR10UErrorCode(ptr noundef nonnull align 8 dereferenceable(304) %0, ptr noundef nonnull align 8 dereferenceable(136) %1, i32 noundef %2, i32 noundef %3, ptr noundef nonnull align 4 dereferenceable(4) %4) unnamed_addr #4 align 2 personality ptr @__gxx_personality_v0 {
  %6 = alloca %"class.icu_77::UnicodeString", align 8
  %7 = getelementptr inbounds nuw i8, ptr %0, i64 8
  %8 = tail call noundef i32 @_ZN6icu_7722FormattedStringBuilder6insertEiRKS0_R10UErrorCode(ptr noundef nonnull align 8 dereferenceable(136) %1, i32 noundef %2, ptr noundef nonnull align 8 dereferenceable(136) %7, ptr noundef nonnull align 4 dereferenceable(4) %4)
  %9 = getelementptr inbounds nuw i8, ptr %0, i64 280
  %10 = load i8, ptr %9, align 8, !tbaa !48, !range !30, !noundef !31
  %11 = trunc nuw i8 %10 to i1
  br i1 %11, label %12, label %21

12:                                               ; preds = %5
  %13 = add nsw i32 %8, %2
  %14 = add nsw i32 %8, %3
  call void @llvm.lifetime.start.p0(i64 64, ptr nonnull %6) #19
  store ptr getelementptr inbounds nuw inrange(-16, 88) (i8, ptr @_ZTVN6icu_7713UnicodeStringE, i64 16), ptr %6, align 8, !tbaa !13
  %15 = getelementptr inbounds nuw i8, ptr %6, i64 8
  store i16 2, ptr %15, align 8, !tbaa !21
  %16 = invoke noundef i32 @_ZN6icu_7722FormattedStringBuilder6spliceEiiRKNS_13UnicodeStringEiiNS0_5FieldER10UErrorCode(ptr noundef nonnull align 8 dereferenceable(136) %1, i32 noundef %13, i32 noundef %14, ptr noundef nonnull align 8 dereferenceable(64) %6, i32 noundef 0, i32 noundef 0, i8 0, ptr noundef nonnull align 4 dereferenceable(4) %4)
          to label %17 unwind label %19

17:                                               ; preds = %12
  %18 = add nsw i32 %16, %8
  call void @_ZN6icu_7713UnicodeStringD1Ev(ptr noundef nonnull align 8 dereferenceable(64) %6) #19
  call void @llvm.lifetime.end.p0(i64 64, ptr nonnull %6) #19
  br label %21

19:                                               ; preds = %12
  %20 = landingpad { ptr, i32 }
          cleanup
  call void @_ZN6icu_7713UnicodeStringD1Ev(ptr noundef nonnull align 8 dereferenceable(64) %6) #19
  call void @llvm.lifetime.end.p0(i64 64, ptr nonnull %6) #19
  resume { ptr, i32 } %20

21:                                               ; preds = %17, %5
  %.0 = phi i32 [ %18, %17 ], [ %8, %5 ]
  %22 = add nsw i32 %.0, %3
  %23 = getelementptr inbounds nuw i8, ptr %0, i64 144
  %24 = call noundef i32 @_ZN6icu_7722FormattedStringBuilder6insertEiRKS0_R10UErrorCode(ptr noundef nonnull align 8 dereferenceable(136) %1, i32 noundef %22, ptr noundef nonnull align 8 dereferenceable(136) %23, ptr noundef nonnull align 4 dereferenceable(4) %4)
  %25 = add nsw i32 %24, %.0
  ret i32 %25
}